target datalayout = "e-m:e-p270:32:32-p271:32:32-p272:64:64-i64:64-i128:128-f80:128-n8:16:32:64-S128"
target triple = "x86_64-pc-linux-gnu"

%struct.H5T_conv_enum_t = type { ptr, ptr, i32, i32, ptr }

@.str = private unnamed_addr constant [106 x i8] c"generated/home/dtcxzyw/WorkSpace/Projects/compilers/llvm-opt-benchmark/bench/hdf5/hdf5/src/H5Tconv_enum.c\00", align 1
@H5E_DATATYPE_g = external global i64, align 8
@H5E_CANTCLOSEOBJ_g = external global i64, align 8
@.str.13 = private unnamed_addr constant [39 x i8] c"unable to close copied source datatype\00", align 1
@.str.14 = private unnamed_addr constant [44 x i8] c"unable to close copied destination datatype\00", align 1
@__func__.H5T__conv_enum_free = private unnamed_addr constant [20 x i8] c"H5T__conv_enum_free\00", align 1

; Function Attrs: nounwind uwtable
define internal i32 @H5T__conv_enum_free(ptr noundef %0) #0 {
  %2 = alloca ptr, align 8
  %3 = alloca i32, align 4
  %4 = alloca i8, align 1
  store ptr %0, ptr %2, align 8
  store i32 0, ptr %3, align 4
  store i8 0, ptr %4, align 1
  %5 = load ptr, ptr %2, align 8
  %6 = icmp ne ptr %5, null
  br i1 %6, label %7, label %60

7:                                                ; preds = %1
  %8 = load ptr, ptr %2, align 8
  %9 = getelementptr inbounds %struct.H5T_conv_enum_t, ptr %8, i32 0, i32 4
  %10 = load ptr, ptr %9, align 8
  call void @free(ptr noundef %10) #12
  %11 = load ptr, ptr %2, align 8
  %12 = getelementptr inbounds %struct.H5T_conv_enum_t, ptr %11, i32 0, i32 1
  %13 = load ptr, ptr %12, align 8
  %14 = icmp ne ptr %13, null
  br i1 %14, label %15, label %34

15:                                               ; preds = %7
  %16 = load ptr, ptr %2, align 8
  %17 = getelementptr inbounds %struct.H5T_conv_enum_t, ptr %16, i32 0, i32 1
  %18 = load ptr, ptr %17, align 8
  %19 = call i32 @H5T_close(ptr noundef %18)
  %20 = icmp slt i32 %19, 0
  br i1 %20, label %21, label %34

21:                                               ; preds = %15
  br label %22

22:                                               ; preds = %21
  br label %23

23:                                               ; preds = %22
  br label %24

24:                                               ; preds = %23
  %25 = load i64, ptr @H5E_DATATYPE_g, align 8
  %26 = load i64, ptr @H5E_CANTCLOSEOBJ_g, align 8
  %27 = call i32 (ptr, ptr, i32, i64, i64, ptr, ...) @H5E_printf_stack(ptr noundef @.str, ptr noundef @__func__.H5T__conv_enum_free, i32 noundef 280, i64 noundef %25, i64 noundef %26, ptr noundef @.str.13)
  br label %28

28:                                               ; preds = %24
  store i8 1, ptr %4, align 1
  %29 = load i8, ptr %4, align 1
  %30 = trunc i8 %29 to i1
  %31 = zext i1 %30 to i8
  store i8 %31, ptr %4, align 1
  br label %32

32:                                               ; preds = %28
  store i32 -1, ptr %3, align 4
  br label %33

33:                                               ; preds = %32
  br label %34

34:                                               ; preds = %33, %15, %7
  %35 = load ptr, ptr %2, align 8
  %36 = getelementptr inbounds %struct.H5T_conv_enum_t, ptr %35, i32 0, i32 0
  %37 = load ptr, ptr %36, align 8
  %38 = icmp ne ptr %37, null
  br i1 %38, label %39, label %58

39:                                               ; preds = %34
  %40 = load ptr, ptr %2, align 8
  %41 = getelementptr inbounds %struct.H5T_conv_enum_t, ptr %40, i32 0, i32 0
  %42 = load ptr, ptr %41, align 8
  %43 = call i32 @H5T_close(ptr noundef %42)
  %44 = icmp slt i32 %43, 0
  br i1 %44, label %45, label %58

45:                                               ; preds = %39
  br label %46

46:                                               ; preds = %45
  br label %47

47:                                               ; preds = %46
  br label %48

48:                                               ; preds = %47
  %49 = load i64, ptr @H5E_DATATYPE_g, align 8
  %50 = load i64, ptr @H5E_CANTCLOSEOBJ_g, align 8
  %51 = call i32 (ptr, ptr, i32, i64, i64, ptr, ...) @H5E_printf_stack(ptr noundef @.str, ptr noundef @__func__.H5T__conv_enum_free, i32 noundef 282, i64 noundef %49, i64 noundef %50, ptr noundef @.str.14)
  br label %52

52:                                               ; preds = %48
  store i8 1, ptr %4, align 1
  %53 = load i8, ptr %4, align 1
  %54 = trunc i8 %53 to i1
  %55 = zext i1 %54 to i8
  store i8 %55, ptr %4, align 1
  br label %56

56:                                               ; preds = %52
  store i32 -1, ptr %3, align 4
  br label %57

57:                                               ; preds = %56
  br label %58

58:                                               ; preds = %57, %39, %34
  %59 = load ptr, ptr %2, align 8
  call void @free(ptr noundef %59) #12
  br label %60

60:                                               ; preds = %58, %1
  %61 = load i32, ptr %3, align 4
  ret i32 %61
}