; Function Attrs: nounwind uwtable
define internal fastcc range(i32 -1, 1) i32 @H5T__conv_enum_free(ptr noundef %0) unnamed_addr #0 {
  %.not = icmp eq ptr %0, null
  br i1 %.not, label %24, label %2

2:                                                ; preds = %1
  %3 = getelementptr inbounds i8, ptr %0, i64 24
  %4 = load ptr, ptr %3, align 8
  tail call void @free(ptr noundef %4) #10
  %5 = getelementptr inbounds i8, ptr %0, i64 8
  %6 = load ptr, ptr %5, align 8
  %.not12 = icmp eq ptr %6, null
  br i1 %.not12, label %14, label %7

7:                                                ; preds = %2
  %8 = tail call i32 @H5T_close(ptr noundef nonnull %6) #10
  %9 = icmp slt i32 %8, 0
  br i1 %9, label %10, label %14

10:                                               ; preds = %7
  %11 = load i64, ptr @H5E_DATATYPE_g, align 8
  %12 = load i64, ptr @H5E_CANTCLOSEOBJ_g, align 8
  %13 = tail call i32 (ptr, ptr, i32, i64, i64, ptr, ...) @H5E_printf_stack(ptr noundef nonnull @.str, ptr noundef nonnull @__func__.H5T__conv_enum_free, i32 noundef 280, i64 noundef %11, i64 noundef %12, ptr noundef nonnull @.str.13) #10
  br label %14

14:                                               ; preds = %10, %7, %2
  %.0 = phi i32 [ -1, %10 ], [ 0, %7 ], [ 0, %2 ]
  %15 = load ptr, ptr %0, align 8
  %.not13 = icmp eq ptr %15, null
  br i1 %.not13, label %23, label %16

16:                                               ; preds = %14
  %17 = tail call i32 @H5T_close(ptr noundef nonnull %15) #10
  %18 = icmp slt i32 %17, 0
  br i1 %18, label %19, label %23

19:                                               ; preds = %16
  %20 = load i64, ptr @H5E_DATATYPE_g, align 8
  %21 = load i64, ptr @H5E_CANTCLOSEOBJ_g, align 8
  %22 = tail call i32 (ptr, ptr, i32, i64, i64, ptr, ...) @H5E_printf_stack(ptr noundef nonnull @.str, ptr noundef nonnull @__func__.H5T__conv_enum_free, i32 noundef 282, i64 noundef %20, i64 noundef %21, ptr noundef nonnull @.str.14) #10
  br label %23

23:                                               ; preds = %19, %16, %14
  %.1 = phi i32 [ -1, %19 ], [ %.0, %16 ], [ %.0, %14 ]
  tail call void @free(ptr noundef nonnull %0) #10
  br label %24

24:                                               ; preds = %23, %1
  %.2 = phi i32 [ %.1, %23 ], [ 0, %1 ]
  ret i32 %.2
}